target datalayout = "e-m:e-p270:32:32-p271:32:32-p272:64:64-i64:64-i128:128-f80:128-n8:16:32:64-S128"
target triple = "x86_64-pc-linux-gnu"

%struct.AfterTriggersData = type { i32, ptr, %struct.AfterTriggerEventList, ptr, ptr, i32, i32, ptr, i32 }
%struct.AfterTriggerEventList = type { ptr, ptr, ptr }
%struct.ItemPointerData = type { %struct.BlockIdData, i16 }
%struct.BlockIdData = type { i16, i16 }
%struct.AfterTriggerEventData = type { i32, %struct.ItemPointerData, %struct.ItemPointerData, i32, i32 }
%struct.AfterTriggerSharedData = type { i32, i32, i32, i32, i32, ptr, ptr }
%struct.AfterTriggerEventChunk = type { ptr, ptr, ptr, ptr }
%struct.SetConstraintStateData = type { i8, i8, i32, i32, [0 x %struct.SetConstraintTriggerData] }
%struct.SetConstraintTriggerData = type { i32, i8 }

@.str.2 = private unnamed_addr constant [10 x i8] c"trigger.c\00", align 1
@afterTriggers = internal global %struct.AfterTriggersData zeroinitializer, align 8
@.str.84 = private unnamed_addr constant [66 x i8] c"cannot fire deferred trigger within security-restricted operation\00", align 1
@__func__.afterTriggerMarkEvents = private unnamed_addr constant [23 x i8] c"afterTriggerMarkEvents\00", align 1

; Function Attrs: nounwind uwtable
define internal zeroext i1 @afterTriggerCheckState(ptr noundef %0) #0 {
  %2 = alloca i1, align 1
  %3 = alloca ptr, align 8
  %4 = alloca i32, align 4
  %5 = alloca ptr, align 8
  %6 = alloca i32, align 4
  %7 = alloca i32, align 4
  store ptr %0, ptr %3, align 8
  call void @llvm.lifetime.start.p0(i64 4, ptr %4) #12
  %8 = load ptr, ptr %3, align 8
  %9 = getelementptr inbounds nuw %struct.AfterTriggerSharedData, ptr %8, i32 0, i32 1
  %10 = load i32, ptr %9, align 4
  store i32 %10, ptr %4, align 4
  call void @llvm.lifetime.start.p0(i64 8, ptr %5) #12
  %11 = load ptr, ptr getelementptr inbounds nuw (%struct.AfterTriggersData, ptr @afterTriggers, i32 0, i32 1), align 8
  store ptr %11, ptr %5, align 8
  call void @llvm.lifetime.start.p0(i64 4, ptr %6) #12
  %12 = load ptr, ptr %3, align 8
  %13 = getelementptr inbounds nuw %struct.AfterTriggerSharedData, ptr %12, i32 0, i32 0
  %14 = load i32, ptr %13, align 8
  %15 = and i32 %14, 32
  %16 = icmp eq i32 %15, 0
  br i1 %16, label %17, label %18

17:                                               ; preds = %1
  store i1 false, ptr %2, align 1
  store i32 1, ptr %7, align 4
  br label %68

18:                                               ; preds = %1
  %19 = load ptr, ptr %5, align 8
  %20 = icmp ne ptr %19, null
  br i1 %20, label %21, label %62

21:                                               ; preds = %18
  store i32 0, ptr %6, align 4
  br label %22

22:                                               ; preds = %48, %21
  %23 = load i32, ptr %6, align 4
  %24 = load ptr, ptr %5, align 8
  %25 = getelementptr inbounds nuw %struct.SetConstraintStateData, ptr %24, i32 0, i32 2
  %26 = load i32, ptr %25, align 4
  %27 = icmp slt i32 %23, %26
  br i1 %27, label %28, label %51

28:                                               ; preds = %22
  %29 = load ptr, ptr %5, align 8
  %30 = getelementptr inbounds nuw %struct.SetConstraintStateData, ptr %29, i32 0, i32 4
  %31 = load i32, ptr %6, align 4
  %32 = sext i32 %31 to i64
  %33 = getelementptr inbounds [0 x %struct.SetConstraintTriggerData], ptr %30, i64 0, i64 %32
  %34 = getelementptr inbounds nuw %struct.SetConstraintTriggerData, ptr %33, i32 0, i32 0
  %35 = load i32, ptr %34, align 4
  %36 = load i32, ptr %4, align 4
  %37 = icmp eq i32 %35, %36
  br i1 %37, label %38, label %47

38:                                               ; preds = %28
  %39 = load ptr, ptr %5, align 8
  %40 = getelementptr inbounds nuw %struct.SetConstraintStateData, ptr %39, i32 0, i32 4
  %41 = load i32, ptr %6, align 4
  %42 = sext i32 %41 to i64
  %43 = getelementptr inbounds [0 x %struct.SetConstraintTriggerData], ptr %40, i64 0, i64 %42
  %44 = getelementptr inbounds nuw %struct.SetConstraintTriggerData, ptr %43, i32 0, i32 1
  %45 = load i8, ptr %44, align 4, !range !4, !noundef !5
  %46 = trunc i8 %45 to i1
  store i1 %46, ptr %2, align 1
  store i32 1, ptr %7, align 4
  br label %68

47:                                               ; preds = %28
  br label %48

48:                                               ; preds = %47
  %49 = load i32, ptr %6, align 4
  %50 = add i32 %49, 1
  store i32 %50, ptr %6, align 4
  br label %22, !llvm.loop !73

51:                                               ; preds = %22
  %52 = load ptr, ptr %5, align 8
  %53 = getelementptr inbounds nuw %struct.SetConstraintStateData, ptr %52, i32 0, i32 0
  %54 = load i8, ptr %53, align 4, !range !4, !noundef !5
  %55 = trunc i8 %54 to i1
  br i1 %55, label %56, label %61

56:                                               ; preds = %51
  %57 = load ptr, ptr %5, align 8
  %58 = getelementptr inbounds nuw %struct.SetConstraintStateData, ptr %57, i32 0, i32 1
  %59 = load i8, ptr %58, align 1, !range !4, !noundef !5
  %60 = trunc i8 %59 to i1
  store i1 %60, ptr %2, align 1
  store i32 1, ptr %7, align 4
  br label %68

61:                                               ; preds = %51
  br label %62

62:                                               ; preds = %61, %18
  %63 = load ptr, ptr %3, align 8
  %64 = getelementptr inbounds nuw %struct.AfterTriggerSharedData, ptr %63, i32 0, i32 0
  %65 = load i32, ptr %64, align 8
  %66 = and i32 %65, 64
  %67 = icmp ne i32 %66, 0
  store i1 %67, ptr %2, align 1
  store i32 1, ptr %7, align 4
  br label %68

68:                                               ; preds = %62, %56, %38, %17
  call void @llvm.lifetime.end.p0(i64 4, ptr %6) #12
  call void @llvm.lifetime.end.p0(i64 8, ptr %5) #12
  call void @llvm.lifetime.end.p0(i64 4, ptr %4) #12
  %69 = load i1, ptr %2, align 1
  ret i1 %69
}

; Function Attrs: nounwind uwtable
define internal zeroext i1 @afterTriggerMarkEvents(ptr noundef %0, ptr noundef %1, i1 noundef zeroext %2) #0 {
  %4 = alloca ptr, align 8
  %5 = alloca ptr, align 8
  %6 = alloca i8, align 1
  %7 = alloca i8, align 1
  %8 = alloca i8, align 1
  %9 = alloca ptr, align 8
  %10 = alloca ptr, align 8
  %11 = alloca ptr, align 8
  %12 = alloca i8, align 1
  store ptr %0, ptr %4, align 8
  store ptr %1, ptr %5, align 8
  %13 = zext i1 %2 to i8
  store i8 %13, ptr %6, align 1
  call void @llvm.lifetime.start.p0(i64 1, ptr %7) #12
  store i8 0, ptr %7, align 1
  call void @llvm.lifetime.start.p0(i64 1, ptr %8) #12
  store i8 0, ptr %8, align 1
  call void @llvm.lifetime.start.p0(i64 8, ptr %9) #12
  call void @llvm.lifetime.start.p0(i64 8, ptr %10) #12
  %14 = load ptr, ptr %4, align 8
  %15 = getelementptr inbounds nuw %struct.AfterTriggerEventList, ptr %14, i32 0, i32 0
  %16 = load ptr, ptr %15, align 8
  store ptr %16, ptr %10, align 8
  br label %17

17:                                               ; preds = %101, %3
  %18 = load ptr, ptr %10, align 8
  %19 = icmp ne ptr %18, null
  br i1 %19, label %20, label %105

20:                                               ; preds = %17
  %21 = load ptr, ptr %10, align 8
  %22 = getelementptr inbounds nuw i8, ptr %21, i64 32
  store ptr %22, ptr %9, align 8
  br label %23

23:                                               ; preds = %97, %20
  %24 = load ptr, ptr %9, align 8
  %25 = load ptr, ptr %10, align 8
  %26 = getelementptr inbounds nuw %struct.AfterTriggerEventChunk, ptr %25, i32 0, i32 1
  %27 = load ptr, ptr %26, align 8
  %28 = icmp ult ptr %24, %27
  br i1 %28, label %29, label %100

29:                                               ; preds = %23
  call void @llvm.lifetime.start.p0(i64 8, ptr %11) #12
  %30 = load ptr, ptr %9, align 8
  %31 = load ptr, ptr %9, align 8
  %32 = getelementptr inbounds nuw %struct.AfterTriggerEventData, ptr %31, i32 0, i32 0
  %33 = load i32, ptr %32, align 4
  %34 = and i32 %33, 134217727
  %35 = zext i32 %34 to i64
  %36 = getelementptr inbounds nuw i8, ptr %30, i64 %35
  store ptr %36, ptr %11, align 8
  call void @llvm.lifetime.start.p0(i64 1, ptr %12) #12
  store i8 0, ptr %12, align 1
  %37 = load ptr, ptr %9, align 8
  %38 = getelementptr inbounds nuw %struct.AfterTriggerEventData, ptr %37, i32 0, i32 0
  %39 = load i32, ptr %38, align 4
  %40 = and i32 %39, -1073741824
  %41 = icmp ne i32 %40, 0
  br i1 %41, label %58, label %42

42:                                               ; preds = %29
  %43 = load i8, ptr %6, align 1, !range !4, !noundef !5
  %44 = trunc i8 %43 to i1
  br i1 %44, label %45, label %49

45:                                               ; preds = %42
  %46 = load ptr, ptr %11, align 8
  %47 = call zeroext i1 @afterTriggerCheckState(ptr noundef %46)
  br i1 %47, label %48, label %49

48:                                               ; preds = %45
  store i8 1, ptr %12, align 1
  br label %57

49:                                               ; preds = %45, %42
  %50 = load i32, ptr @afterTriggers, align 8
  %51 = load ptr, ptr %11, align 8
  %52 = getelementptr inbounds nuw %struct.AfterTriggerSharedData, ptr %51, i32 0, i32 4
  store i32 %50, ptr %52, align 8
  %53 = load ptr, ptr %9, align 8
  %54 = getelementptr inbounds nuw %struct.AfterTriggerEventData, ptr %53, i32 0, i32 0
  %55 = load i32, ptr %54, align 4
  %56 = or i32 %55, 1073741824
  store i32 %56, ptr %54, align 4
  store i8 1, ptr %7, align 1
  br label %57

57:                                               ; preds = %49, %48
  br label %58

58:                                               ; preds = %57, %29
  %59 = load i8, ptr %12, align 1, !range !4, !noundef !5
  %60 = trunc i8 %59 to i1
  br i1 %60, label %61, label %72

61:                                               ; preds = %58
  %62 = load ptr, ptr %5, align 8
  %63 = icmp ne ptr %62, null
  br i1 %63, label %64, label %72

64:                                               ; preds = %61
  store i8 1, ptr %8, align 1
  %65 = load ptr, ptr %5, align 8
  %66 = load ptr, ptr %9, align 8
  %67 = load ptr, ptr %11, align 8
  call void @afterTriggerAddEvent(ptr noundef %65, ptr noundef %66, ptr noundef %67)
  %68 = load ptr, ptr %9, align 8
  %69 = getelementptr inbounds nuw %struct.AfterTriggerEventData, ptr %68, i32 0, i32 0
  %70 = load i32, ptr %69, align 4
  %71 = or i32 %70, -2147483648
  store i32 %71, ptr %69, align 4
  br label %72

72:                                               ; preds = %64, %61, %58
  call void @llvm.lifetime.end.p0(i64 1, ptr %12) #12
  call void @llvm.lifetime.end.p0(i64 8, ptr %11) #12
  br label %73

73:                                               ; preds = %72
  %74 = load ptr, ptr %9, align 8
  %75 = load ptr, ptr %9, align 8
  %76 = getelementptr inbounds nuw %struct.AfterTriggerEventData, ptr %75, i32 0, i32 0
  %77 = load i32, ptr %76, align 4
  %78 = and i32 %77, 939524096
  %79 = icmp eq i32 %78, 134217728
  br i1 %79, label %80, label %81

80:                                               ; preds = %73
  br label %97

81:                                               ; preds = %73
  %82 = load ptr, ptr %9, align 8
  %83 = getelementptr inbounds nuw %struct.AfterTriggerEventData, ptr %82, i32 0, i32 0
  %84 = load i32, ptr %83, align 4
  %85 = and i32 %84, 939524096
  %86 = icmp eq i32 %85, 805306368
  br i1 %86, label %87, label %88

87:                                               ; preds = %81
  br label %95

88:                                               ; preds = %81
  %89 = load ptr, ptr %9, align 8
  %90 = getelementptr inbounds nuw %struct.AfterTriggerEventData, ptr %89, i32 0, i32 0
  %91 = load i32, ptr %90, align 4
  %92 = and i32 %91, 939524096
  %93 = icmp eq i32 %92, 268435456
  %94 = select i1 %93, i64 12, i64 4
  br label %95

95:                                               ; preds = %88, %87
  %96 = phi i64 [ 16, %87 ], [ %94, %88 ]
  br label %97

97:                                               ; preds = %95, %80
  %98 = phi i64 [ 24, %80 ], [ %96, %95 ]
  %99 = getelementptr inbounds nuw i8, ptr %74, i64 %98
  store ptr %99, ptr %9, align 8
  br label %23, !llvm.loop !46

100:                                              ; preds = %23
  br label %101

101:                                              ; preds = %100
  %102 = load ptr, ptr %10, align 8
  %103 = getelementptr inbounds nuw %struct.AfterTriggerEventChunk, ptr %102, i32 0, i32 0
  %104 = load ptr, ptr %103, align 8
  store ptr %104, ptr %10, align 8
  br label %17, !llvm.loop !47

105:                                              ; preds = %17
  %106 = load i8, ptr %8, align 1, !range !4, !noundef !5
  %107 = trunc i8 %106 to i1
  br i1 %107, label %108, label %122

108:                                              ; preds = %105
  %109 = call zeroext i1 @InSecurityRestrictedOperation()
  br i1 %109, label %110, label %122

110:                                              ; preds = %108
  br label %111

111:                                              ; preds = %110
  br i1 true, label %112, label %114

112:                                              ; preds = %111
  %113 = call zeroext i1 @errstart_cold(i32 noundef 21, ptr noundef null) #13
  br i1 %113, label %116, label %119

114:                                              ; preds = %111
  %115 = call zeroext i1 @errstart(i32 noundef 21, ptr noundef null)
  br i1 %115, label %116, label %119

116:                                              ; preds = %114, %112
  %117 = call i32 @errcode(i32 noundef 16797828)
  %118 = call i32 (ptr, ...) @errmsg(ptr noundef @.str.84)
  call void @errfinish(ptr noundef @.str.2, i32 noundef 4635, ptr noundef @__func__.afterTriggerMarkEvents)
  br label %119

119:                                              ; preds = %116, %114, %112
  unreachable

120:                                              ; No predecessors!
  br label %121

121:                                              ; preds = %120
  br label %122

122:                                              ; preds = %121, %108, %105
  %123 = load i8, ptr %7, align 1, !range !4, !noundef !5
  %124 = trunc i8 %123 to i1
  call void @llvm.lifetime.end.p0(i64 8, ptr %10) #12
  call void @llvm.lifetime.end.p0(i64 8, ptr %9) #12
  call void @llvm.lifetime.end.p0(i64 1, ptr %8) #12
  call void @llvm.lifetime.end.p0(i64 1, ptr %7) #12
  ret i1 %124
}