; Function Attrs: nounwind uwtable
define internal fastcc zeroext i1 @afterTriggerMarkEvents(ptr noundef readonly captures(none) %0, ptr noundef captures(address_is_null) %1, i1 noundef zeroext %2) unnamed_addr #0 {
  %.02649 = load ptr, ptr %0, align 8
  %.not50 = icmp eq ptr %.02649, null
  br i1 %.not50, label %._crit_edge.thread, label %.lr.ph54

.lr.ph54:                                         ; preds = %3
  %.not41 = icmp eq ptr %1, null
  br i1 %2, label %.lr.ph54.split.us, label %.lr.ph54.split

.lr.ph54.split.us:                                ; preds = %.lr.ph54, %.loopexit.us
  %.02653.us = phi ptr [ %.026.us, %.loopexit.us ], [ %.02649, %.lr.ph54 ]
  %.02552.us = phi i1 [ %.1.lcssa.us, %.loopexit.us ], [ false, %.lr.ph54 ]
  %.02851.us = phi i1 [ %.129.lcssa.us, %.loopexit.us ], [ false, %.lr.ph54 ]
  %4 = getelementptr inbounds nuw i8, ptr %.02653.us, i64 32
  %5 = getelementptr inbounds nuw i8, ptr %.02653.us, i64 8
  %6 = load ptr, ptr %5, align 8
  %7 = icmp ult ptr %4, %6
  br i1 %7, label %.lr.ph.us, label %.loopexit.us

.loopexit.us:                                     ; preds = %50, %.lr.ph54.split.us
  %.129.lcssa.us = phi i1 [ %.02851.us, %.lr.ph54.split.us ], [ %.230.us.us, %50 ]
  %.1.lcssa.us = phi i1 [ %.02552.us, %.lr.ph54.split.us ], [ %.239.us.us, %50 ]
  %.026.us = load ptr, ptr %.02653.us, align 8
  %.not.us = icmp eq ptr %.026.us, null
  br i1 %.not.us, label %._crit_edge, label %.lr.ph54.split.us, !llvm.loop !43

.lr.ph.us:                                        ; preds = %.lr.ph54.split.us, %50
  %.146.us.us = phi i1 [ %.239.us.us, %50 ], [ %.02552.us, %.lr.ph54.split.us ]
  %.02744.us.us = phi ptr [ %52, %50 ], [ %4, %.lr.ph54.split.us ]
  %.12943.us.us = phi i1 [ %.230.us.us, %50 ], [ %.02851.us, %.lr.ph54.split.us ]
  %8 = load i32, ptr %.02744.us.us, align 4
  %9 = and i32 %8, 134217727
  %10 = zext nneg i32 %9 to i64
  %11 = getelementptr inbounds nuw i8, ptr %.02744.us.us, i64 %10
  %.not33.us.us = icmp ult i32 %8, 1073741824
  br i1 %.not33.us.us, label %12, label %.thread.us.us

12:                                               ; preds = %.lr.ph.us
  %.val.us.us = load i32, ptr %11, align 8
  %13 = getelementptr i8, ptr %11, i64 4
  %.val34.us.us = load i32, ptr %13, align 4
  %14 = load ptr, ptr getelementptr inbounds nuw (i8, ptr @afterTriggers, i64 8), align 8
  %15 = and i32 %.val.us.us, 32
  %16 = icmp eq i32 %15, 0
  br i1 %16, label %afterTriggerCheckState.exit.thread.us.us, label %17

17:                                               ; preds = %12
  %.not.i.us.us = icmp eq ptr %14, null
  br i1 %.not.i.us.us, label %afterTriggerCheckState.exit.us.us, label %.preheader.i.us.us

.preheader.i.us.us:                               ; preds = %17
  %18 = getelementptr inbounds nuw i8, ptr %14, i64 4
  %19 = load i32, ptr %18, align 4
  %20 = icmp sgt i32 %19, 0
  br i1 %20, label %.lr.ph.i.us.us, label %._crit_edge.i.us.us

.lr.ph.i.us.us:                                   ; preds = %.preheader.i.us.us
  %21 = getelementptr inbounds nuw i8, ptr %14, i64 12
  %wide.trip.count.i.us.us = zext nneg i32 %19 to i64
  br label %22

22:                                               ; preds = %26, %.lr.ph.i.us.us
  %indvars.iv.i.us.us = phi i64 [ 0, %.lr.ph.i.us.us ], [ %indvars.iv.next.i.us.us, %26 ]
  %23 = getelementptr inbounds nuw [0 x %struct.SetConstraintTriggerData], ptr %21, i64 0, i64 %indvars.iv.i.us.us
  %24 = load i32, ptr %23, align 4
  %25 = icmp eq i32 %24, %.val34.us.us
  br i1 %25, label %33, label %26

26:                                               ; preds = %22
  %indvars.iv.next.i.us.us = add nuw nsw i64 %indvars.iv.i.us.us, 1
  %exitcond.not.i.us.us = icmp eq i64 %indvars.iv.next.i.us.us, %wide.trip.count.i.us.us
  br i1 %exitcond.not.i.us.us, label %._crit_edge.i.us.us, label %22, !llvm.loop !44

._crit_edge.i.us.us:                              ; preds = %26, %.preheader.i.us.us
  %27 = load i8, ptr %14, align 4, !range !4, !noundef !5
  %28 = trunc nuw i8 %27 to i1
  br i1 %28, label %29, label %afterTriggerCheckState.exit.us.us

29:                                               ; preds = %._crit_edge.i.us.us
  %30 = getelementptr inbounds nuw i8, ptr %14, i64 1
  %31 = load i8, ptr %30, align 1, !range !4, !noundef !5
  %32 = trunc nuw i8 %31 to i1
  br i1 %32, label %38, label %afterTriggerCheckState.exit.thread.us.us

33:                                               ; preds = %22
  %.idx.i.us.us = shl nuw nsw i64 %indvars.iv.i.us.us, 3
  %.offs.i.us.us = or disjoint i64 %.idx.i.us.us, 4
  %34 = getelementptr inbounds nuw i8, ptr %21, i64 %.offs.i.us.us
  %35 = load i8, ptr %34, align 4, !range !4, !noundef !5
  %36 = trunc nuw i8 %35 to i1
  br i1 %36, label %38, label %afterTriggerCheckState.exit.thread.us.us

afterTriggerCheckState.exit.us.us:                ; preds = %._crit_edge.i.us.us, %17
  %37 = and i32 %.val.us.us, 64
  %.not40.us.us = icmp eq i32 %37, 0
  br i1 %.not40.us.us, label %afterTriggerCheckState.exit.thread.us.us, label %38

38:                                               ; preds = %afterTriggerCheckState.exit.us.us, %33, %29
  br i1 %.not41, label %.thread.us.us, label %39

39:                                               ; preds = %38
  tail call fastcc void @afterTriggerAddEvent(ptr noundef nonnull %1, ptr noundef %.02744.us.us, ptr noundef %11)
  %40 = load i32, ptr %.02744.us.us, align 4
  %41 = or i32 %40, -2147483648
  br label %.thread.us.us.sink.split

afterTriggerCheckState.exit.thread.us.us:         ; preds = %afterTriggerCheckState.exit.us.us, %33, %29, %12
  %42 = load i32, ptr @afterTriggers, align 8
  %43 = getelementptr inbounds nuw i8, ptr %11, i64 16
  store i32 %42, ptr %43, align 8
  %44 = or disjoint i32 %8, 1073741824
  br label %.thread.us.us.sink.split

.thread.us.us.sink.split:                         ; preds = %39, %afterTriggerCheckState.exit.thread.us.us
  %.sink = phi i32 [ %44, %afterTriggerCheckState.exit.thread.us.us ], [ %41, %39 ]
  %.239.us.us.ph = phi i1 [ true, %afterTriggerCheckState.exit.thread.us.us ], [ %.146.us.us, %39 ]
  %.230.us.us.ph = phi i1 [ %.12943.us.us, %afterTriggerCheckState.exit.thread.us.us ], [ true, %39 ]
  store i32 %.sink, ptr %.02744.us.us, align 4
  br label %.thread.us.us

.thread.us.us:                                    ; preds = %.thread.us.us.sink.split, %38, %.lr.ph.us
  %45 = phi i32 [ %8, %38 ], [ %8, %.lr.ph.us ], [ %.sink, %.thread.us.us.sink.split ]
  %.239.us.us = phi i1 [ %.146.us.us, %38 ], [ %.146.us.us, %.lr.ph.us ], [ %.239.us.us.ph, %.thread.us.us.sink.split ]
  %.230.us.us = phi i1 [ %.12943.us.us, %38 ], [ %.12943.us.us, %.lr.ph.us ], [ %.230.us.us.ph, %.thread.us.us.sink.split ]
  %46 = and i32 %45, 939524096
  switch i32 %46, label %47 [
    i32 134217728, label %50
    i32 805306368, label %.fold.split.us.us
  ]

.fold.split.us.us:                                ; preds = %.thread.us.us
  br label %50

47:                                               ; preds = %.thread.us.us
  %48 = icmp eq i32 %46, 268435456
  %49 = select i1 %48, i64 12, i64 4
  br label %50

50:                                               ; preds = %47, %.fold.split.us.us, %.thread.us.us
  %51 = phi i64 [ 24, %.thread.us.us ], [ %49, %47 ], [ 16, %.fold.split.us.us ]
  %52 = getelementptr inbounds nuw i8, ptr %.02744.us.us, i64 %51
  %53 = load ptr, ptr %5, align 8
  %54 = icmp ult ptr %52, %53
  br i1 %54, label %.lr.ph.us, label %.loopexit.us, !llvm.loop !45

.loopexit:                                        ; preds = %71, %.lr.ph54.split
  %.1.lcssa = phi i1 [ %.02552, %.lr.ph54.split ], [ %.239, %71 ]
  %.026 = load ptr, ptr %.02653, align 8
  %.not = icmp eq ptr %.026, null
  br i1 %.not, label %._crit_edge.thread, label %.lr.ph54.split, !llvm.loop !43

.lr.ph54.split:                                   ; preds = %.lr.ph54, %.loopexit
  %.02653 = phi ptr [ %.026, %.loopexit ], [ %.02649, %.lr.ph54 ]
  %.02552 = phi i1 [ %.1.lcssa, %.loopexit ], [ false, %.lr.ph54 ]
  %55 = getelementptr inbounds nuw i8, ptr %.02653, i64 32
  %56 = getelementptr inbounds nuw i8, ptr %.02653, i64 8
  %57 = load ptr, ptr %56, align 8
  %58 = icmp ult ptr %55, %57
  br i1 %58, label %.lr.ph, label %.loopexit

.lr.ph:                                           ; preds = %.lr.ph54.split, %71
  %.146 = phi i1 [ %.239, %71 ], [ %.02552, %.lr.ph54.split ]
  %.02744 = phi ptr [ %73, %71 ], [ %55, %.lr.ph54.split ]
  %59 = load i32, ptr %.02744, align 4
  %.not33 = icmp ult i32 %59, 1073741824
  br i1 %.not33, label %afterTriggerCheckState.exit.thread, label %.thread

afterTriggerCheckState.exit.thread:               ; preds = %.lr.ph
  %60 = and i32 %59, 134217727
  %61 = zext nneg i32 %60 to i64
  %62 = getelementptr inbounds nuw i8, ptr %.02744, i64 %61
  %63 = load i32, ptr @afterTriggers, align 8
  %64 = getelementptr inbounds nuw i8, ptr %62, i64 16
  store i32 %63, ptr %64, align 8
  %65 = or disjoint i32 %59, 1073741824
  store i32 %65, ptr %.02744, align 4
  br label %.thread

.thread:                                          ; preds = %afterTriggerCheckState.exit.thread, %.lr.ph
  %66 = phi i32 [ %65, %afterTriggerCheckState.exit.thread ], [ %59, %.lr.ph ]
  %.239 = phi i1 [ true, %afterTriggerCheckState.exit.thread ], [ %.146, %.lr.ph ]
  %67 = and i32 %66, 939524096
  switch i32 %67, label %68 [
    i32 134217728, label %71
    i32 805306368, label %.fold.split
  ]

68:                                               ; preds = %.thread
  %69 = icmp eq i32 %67, 268435456
  %70 = select i1 %69, i64 12, i64 4
  br label %71

.fold.split:                                      ; preds = %.thread
  br label %71

71:                                               ; preds = %.thread, %.fold.split, %68
  %72 = phi i64 [ 24, %.thread ], [ %70, %68 ], [ 16, %.fold.split ]
  %73 = getelementptr inbounds nuw i8, ptr %.02744, i64 %72
  %74 = load ptr, ptr %56, align 8
  %75 = icmp ult ptr %73, %74
  br i1 %75, label %.lr.ph, label %.loopexit, !llvm.loop !45

._crit_edge:                                      ; preds = %.loopexit.us
  br i1 %.129.lcssa.us, label %76, label %._crit_edge.thread

76:                                               ; preds = %._crit_edge
  %77 = tail call zeroext i1 @InSecurityRestrictedOperation() #16
  br i1 %77, label %78, label %._crit_edge.thread

78:                                               ; preds = %76
  %79 = tail call zeroext i1 @errstart_cold(i32 noundef 21, ptr noundef null) #17
  tail call void @llvm.assume(i1 %79)
  %80 = tail call i32 @errcode(i32 noundef 16797828) #16
  %81 = tail call i32 (ptr, ...) @errmsg(ptr noundef nonnull @.str.84) #16
  tail call void @errfinish(ptr noundef nonnull @.str.2, i32 noundef 4635, ptr noundef nonnull @__func__.afterTriggerMarkEvents) #16
  unreachable

._crit_edge.thread:                               ; preds = %.loopexit, %3, %76, %._crit_edge
  %.025.lcssa63 = phi i1 [ %.1.lcssa.us, %76 ], [ %.1.lcssa.us, %._crit_edge ], [ false, %3 ], [ %.1.lcssa, %.loopexit ]
  ret i1 %.025.lcssa63
}